target datalayout = "e-m:e-p270:32:32-p271:32:32-p272:64:64-i64:64-i128:128-f80:128-n8:16:32:64-S128"
target triple = "x86_64-pc-linux-gnu"

%struct.strbuf = type { i64, i64, ptr }
%struct.option = type { i32, i32, ptr, ptr, ptr, ptr, i32, ptr, i64, ptr, i64, ptr }

@strbuf_slopbuf = external global [0 x i8], align 1
@.str.69 = private unnamed_addr constant [11 x i8] c"./strbuf.h\00", align 1
@.str.70 = private unnamed_addr constant [30 x i8] c"strbuf_setlen() beyond buffer\00", align 1
@.str.127 = private unnamed_addr constant [7 x i8] c"config\00", align 1
@.str.128 = private unnamed_addr constant [9 x i8] c"--global\00", align 1
@.str.130 = private unnamed_addr constant [14 x i8] c"--fixed-value\00", align 1
@.str.131 = private unnamed_addr constant [12 x i8] c"scalar.repo\00", align 1
@.str.133 = private unnamed_addr constant [8 x i8] c"--unset\00", align 1
@__const.cmd_unregister.usage = private unnamed_addr constant [2 x ptr] [ptr @.str.146, ptr null], align 16
@__const.cmd_unregister.src_path = private unnamed_addr constant %struct.strbuf { i64 0, i64 0, ptr @strbuf_slopbuf }, align 8
@__const.cmd_unregister.workdir_path = private unnamed_addr constant %struct.strbuf { i64 0, i64 0, ptr @strbuf_slopbuf }, align 8
@.str.147 = private unnamed_addr constant [12 x i8] c"%s/src/.git\00", align 1
@.str.148 = private unnamed_addr constant [8 x i8] c"%s/.git\00", align 1
@.str.149 = private unnamed_addr constant [6 x i8] c"/.git\00", align 1
@.str.150 = private unnamed_addr constant [17 x i8] c"maintenance.repo\00", align 1

; Function Attrs: inlinehint nounwind uwtable
define internal void @strbuf_setlen(ptr noundef %0, i64 noundef %1) #5 {
  %3 = alloca ptr, align 8
  %4 = alloca i64, align 8
  store ptr %0, ptr %3, align 8, !tbaa !26
  store i64 %1, ptr %4, align 8, !tbaa !51
  %5 = load i64, ptr %4, align 8, !tbaa !51
  %6 = load ptr, ptr %3, align 8, !tbaa !26
  %7 = getelementptr inbounds nuw %struct.strbuf, ptr %6, i32 0, i32 0
  %8 = load i64, ptr %7, align 8, !tbaa !79
  %9 = icmp ne i64 %8, 0
  br i1 %9, label %10, label %15

10:                                               ; preds = %2
  %11 = load ptr, ptr %3, align 8, !tbaa !26
  %12 = getelementptr inbounds nuw %struct.strbuf, ptr %11, i32 0, i32 0
  %13 = load i64, ptr %12, align 8, !tbaa !79
  %14 = sub i64 %13, 1
  br label %16

15:                                               ; preds = %2
  br label %16

16:                                               ; preds = %15, %10
  %17 = phi i64 [ %14, %10 ], [ 0, %15 ]
  %18 = icmp ugt i64 %5, %17
  br i1 %18, label %19, label %20

19:                                               ; preds = %16
  call void (ptr, i32, ptr, ...) @BUG_fl(ptr noundef @.str.69, i32 noundef 167, ptr noundef @.str.70) #11
  unreachable

20:                                               ; preds = %16
  %21 = load i64, ptr %4, align 8, !tbaa !51
  %22 = load ptr, ptr %3, align 8, !tbaa !26
  %23 = getelementptr inbounds nuw %struct.strbuf, ptr %22, i32 0, i32 1
  store i64 %21, ptr %23, align 8, !tbaa !41
  %24 = load ptr, ptr %3, align 8, !tbaa !26
  %25 = getelementptr inbounds nuw %struct.strbuf, ptr %24, i32 0, i32 2
  %26 = load ptr, ptr %25, align 8, !tbaa !23
  %27 = icmp ne ptr %26, @strbuf_slopbuf
  br i1 %27, label %28, label %34

28:                                               ; preds = %20
  %29 = load ptr, ptr %3, align 8, !tbaa !26
  %30 = getelementptr inbounds nuw %struct.strbuf, ptr %29, i32 0, i32 2
  %31 = load ptr, ptr %30, align 8, !tbaa !23
  %32 = load i64, ptr %4, align 8, !tbaa !51
  %33 = getelementptr inbounds nuw i8, ptr %31, i64 %32
  store i8 0, ptr %33, align 1, !tbaa !15
  br label %35

34:                                               ; preds = %20
  br label %35

35:                                               ; preds = %34, %28
  ret void
}

; Function Attrs: inlinehint nounwind uwtable
define internal zeroext i1 @strip_suffix_mem(ptr noundef %0, ptr noundef %1, ptr noundef %2) #5 {
  %4 = alloca i1, align 1
  %5 = alloca ptr, align 8
  %6 = alloca ptr, align 8
  %7 = alloca ptr, align 8
  %8 = alloca i64, align 8
  %9 = alloca i32, align 4
  store ptr %0, ptr %5, align 8, !tbaa !4
  store ptr %1, ptr %6, align 8, !tbaa !86
  store ptr %2, ptr %7, align 8, !tbaa !4
  call void @llvm.lifetime.start.p0(i64 8, ptr %8) #12
  %10 = load ptr, ptr %7, align 8, !tbaa !4
  %11 = call i64 @strlen(ptr noundef %10) #13
  store i64 %11, ptr %8, align 8, !tbaa !51
  %12 = load ptr, ptr %6, align 8, !tbaa !86
  %13 = load i64, ptr %12, align 8, !tbaa !51
  %14 = load i64, ptr %8, align 8, !tbaa !51
  %15 = icmp ult i64 %13, %14
  br i1 %15, label %27, label %16

16:                                               ; preds = %3
  %17 = load ptr, ptr %5, align 8, !tbaa !4
  %18 = load ptr, ptr %6, align 8, !tbaa !86
  %19 = load i64, ptr %18, align 8, !tbaa !51
  %20 = load i64, ptr %8, align 8, !tbaa !51
  %21 = sub i64 %19, %20
  %22 = getelementptr inbounds nuw i8, ptr %17, i64 %21
  %23 = load ptr, ptr %7, align 8, !tbaa !4
  %24 = load i64, ptr %8, align 8, !tbaa !51
  %25 = call i32 @memcmp(ptr noundef %22, ptr noundef %23, i64 noundef %24) #13
  %26 = icmp ne i32 %25, 0
  br i1 %26, label %27, label %28

27:                                               ; preds = %16, %3
  store i1 false, ptr %4, align 1
  store i32 1, ptr %9, align 4
  br label %33

28:                                               ; preds = %16
  %29 = load i64, ptr %8, align 8, !tbaa !51
  %30 = load ptr, ptr %6, align 8, !tbaa !86
  %31 = load i64, ptr %30, align 8, !tbaa !51
  %32 = sub i64 %31, %29
  store i64 %32, ptr %30, align 8, !tbaa !51
  store i1 true, ptr %4, align 1
  store i32 1, ptr %9, align 4
  br label %33

33:                                               ; preds = %28, %27
  call void @llvm.lifetime.end.p0(i64 8, ptr %8) #12
  %34 = load i1, ptr %4, align 1
  ret i1 %34
}

; Function Attrs: nounwind uwtable
define internal i32 @remove_deleted_enlistment(ptr noundef %0) #0 {
  %2 = alloca ptr, align 8
  %3 = alloca i32, align 4
  store ptr %0, ptr %2, align 8, !tbaa !26
  call void @llvm.lifetime.start.p0(i64 4, ptr %3) #12
  store i32 0, ptr %3, align 4, !tbaa !11
  %4 = load ptr, ptr %2, align 8, !tbaa !26
  %5 = load ptr, ptr %2, align 8, !tbaa !26
  %6 = getelementptr inbounds nuw %struct.strbuf, ptr %5, i32 0, i32 2
  %7 = load ptr, ptr %6, align 8, !tbaa !23
  %8 = call ptr @strbuf_realpath_forgiving(ptr noundef %4, ptr noundef %7, i32 noundef 1)
  %9 = load ptr, ptr %2, align 8, !tbaa !26
  %10 = getelementptr inbounds nuw %struct.strbuf, ptr %9, i32 0, i32 2
  %11 = load ptr, ptr %10, align 8, !tbaa !23
  %12 = call i32 (ptr, ...) @run_git(ptr noundef @.str.127, ptr noundef @.str.128, ptr noundef @.str.133, ptr noundef @.str.130, ptr noundef @.str.131, ptr noundef %11, ptr noundef null)
  %13 = icmp slt i32 %12, 0
  br i1 %13, label %14, label %15

14:                                               ; preds = %1
  store i32 -1, ptr %3, align 4, !tbaa !11
  br label %15

15:                                               ; preds = %14, %1
  %16 = load ptr, ptr %2, align 8, !tbaa !26
  %17 = getelementptr inbounds nuw %struct.strbuf, ptr %16, i32 0, i32 2
  %18 = load ptr, ptr %17, align 8, !tbaa !23
  %19 = call i32 (ptr, ...) @run_git(ptr noundef @.str.127, ptr noundef @.str.128, ptr noundef @.str.133, ptr noundef @.str.130, ptr noundef @.str.150, ptr noundef %18, ptr noundef null)
  %20 = icmp slt i32 %19, 0
  br i1 %20, label %21, label %22

21:                                               ; preds = %15
  store i32 -1, ptr %3, align 4, !tbaa !11
  br label %22

22:                                               ; preds = %21, %15
  %23 = load i32, ptr %3, align 4, !tbaa !11
  call void @llvm.lifetime.end.p0(i64 4, ptr %3) #12
  ret i32 %23
}

; Function Attrs: inlinehint nounwind uwtable
define internal i32 @strbuf_strip_suffix(ptr noundef %0, ptr noundef %1) #5 {
  %3 = alloca i32, align 4
  %4 = alloca ptr, align 8
  %5 = alloca ptr, align 8
  store ptr %0, ptr %4, align 8, !tbaa !26
  store ptr %1, ptr %5, align 8, !tbaa !4
  %6 = load ptr, ptr %4, align 8, !tbaa !26
  %7 = getelementptr inbounds nuw %struct.strbuf, ptr %6, i32 0, i32 2
  %8 = load ptr, ptr %7, align 8, !tbaa !23
  %9 = load ptr, ptr %4, align 8, !tbaa !26
  %10 = getelementptr inbounds nuw %struct.strbuf, ptr %9, i32 0, i32 1
  %11 = load ptr, ptr %5, align 8, !tbaa !4
  %12 = call zeroext i1 @strip_suffix_mem(ptr noundef %8, ptr noundef %10, ptr noundef %11)
  br i1 %12, label %13, label %18

13:                                               ; preds = %2
  %14 = load ptr, ptr %4, align 8, !tbaa !26
  %15 = load ptr, ptr %4, align 8, !tbaa !26
  %16 = getelementptr inbounds nuw %struct.strbuf, ptr %15, i32 0, i32 1
  %17 = load i64, ptr %16, align 8, !tbaa !41
  call void @strbuf_setlen(ptr noundef %14, i64 noundef %17)
  store i32 1, ptr %3, align 4
  br label %19

18:                                               ; preds = %2
  store i32 0, ptr %3, align 4
  br label %19

19:                                               ; preds = %18, %13
  %20 = load i32, ptr %3, align 4
  ret i32 %20
}

; Function Attrs: nounwind uwtable
define internal i32 @cmd_unregister(i32 noundef %0, ptr noundef %1) #0 {
  %3 = alloca i32, align 4
  %4 = alloca i32, align 4
  %5 = alloca ptr, align 8
  %6 = alloca [1 x %struct.option], align 16
  %7 = alloca [2 x ptr], align 16
  %8 = alloca %struct.strbuf, align 8
  %9 = alloca %struct.strbuf, align 8
  %10 = alloca i32, align 4
  %11 = alloca i32, align 4
  store i32 %0, ptr %4, align 4, !tbaa !11
  store ptr %1, ptr %5, align 8, !tbaa !13
  call void @llvm.lifetime.start.p0(i64 88, ptr %6) #12
  call void @llvm.memset.p0.i64(ptr align 16 %6, i8 0, i64 88, i1 false)
  call void @llvm.lifetime.start.p0(i64 16, ptr %7) #12
  call void @llvm.memcpy.p0.p0.i64(ptr align 16 %7, ptr align 16 @__const.cmd_unregister.usage, i64 16, i1 false)
  %12 = load i32, ptr %4, align 4, !tbaa !11
  %13 = load ptr, ptr %5, align 8, !tbaa !13
  %14 = getelementptr inbounds [1 x %struct.option], ptr %6, i64 0, i64 0
  %15 = getelementptr inbounds [2 x ptr], ptr %7, i64 0, i64 0
  %16 = call i32 @parse_options(i32 noundef %12, ptr noundef %13, ptr noundef null, ptr noundef %14, ptr noundef %15, i32 noundef 0)
  store i32 %16, ptr %4, align 4, !tbaa !11
  %17 = load i32, ptr %4, align 4, !tbaa !11
  %18 = icmp eq i32 %17, 1
  br i1 %18, label %19, label %59

19:                                               ; preds = %2
  call void @llvm.lifetime.start.p0(i64 24, ptr %8) #12
  call void @llvm.memcpy.p0.p0.i64(ptr align 8 %8, ptr align 8 @__const.cmd_unregister.src_path, i64 24, i1 false)
  call void @llvm.lifetime.start.p0(i64 24, ptr %9) #12
  call void @llvm.memcpy.p0.p0.i64(ptr align 8 %9, ptr align 8 @__const.cmd_unregister.workdir_path, i64 24, i1 false)
  %20 = load ptr, ptr %5, align 8, !tbaa !13
  %21 = getelementptr inbounds ptr, ptr %20, i64 0
  %22 = load ptr, ptr %21, align 8, !tbaa !4
  call void (ptr, ptr, ...) @strbuf_addf(ptr noundef %8, ptr noundef @.str.147, ptr noundef %22)
  %23 = load ptr, ptr %5, align 8, !tbaa !13
  %24 = getelementptr inbounds ptr, ptr %23, i64 0
  %25 = load ptr, ptr %24, align 8, !tbaa !4
  call void (ptr, ptr, ...) @strbuf_addf(ptr noundef %9, ptr noundef @.str.148, ptr noundef %25)
  %26 = getelementptr inbounds nuw %struct.strbuf, ptr %8, i32 0, i32 2
  %27 = load ptr, ptr %26, align 8, !tbaa !23
  %28 = call i32 @is_directory(ptr noundef %27)
  %29 = icmp ne i32 %28, 0
  br i1 %29, label %55, label %30

30:                                               ; preds = %19
  %31 = getelementptr inbounds nuw %struct.strbuf, ptr %9, i32 0, i32 2
  %32 = load ptr, ptr %31, align 8, !tbaa !23
  %33 = call i32 @is_directory(ptr noundef %32)
  %34 = icmp ne i32 %33, 0
  br i1 %34, label %55, label %35

35:                                               ; preds = %30
  call void @llvm.lifetime.start.p0(i64 4, ptr %10) #12
  store i32 -1, ptr %10, align 4, !tbaa !11
  %36 = call i32 @strbuf_strip_suffix(ptr noundef %8, ptr noundef @.str.149)
  %37 = call i32 @remove_deleted_enlistment(ptr noundef %8)
  %38 = icmp ne i32 %37, 0
  br i1 %38, label %39, label %42

39:                                               ; preds = %35
  %40 = load i32, ptr %10, align 4, !tbaa !11
  %41 = icmp ne i32 %40, 0
  br label %42

42:                                               ; preds = %39, %35
  %43 = phi i1 [ false, %35 ], [ %41, %39 ]
  %44 = zext i1 %43 to i32
  store i32 %44, ptr %10, align 4, !tbaa !11
  %45 = call i32 @strbuf_strip_suffix(ptr noundef %9, ptr noundef @.str.149)
  %46 = call i32 @remove_deleted_enlistment(ptr noundef %9)
  %47 = icmp ne i32 %46, 0
  br i1 %47, label %48, label %51

48:                                               ; preds = %42
  %49 = load i32, ptr %10, align 4, !tbaa !11
  %50 = icmp ne i32 %49, 0
  br label %51

51:                                               ; preds = %48, %42
  %52 = phi i1 [ false, %42 ], [ %50, %48 ]
  %53 = zext i1 %52 to i32
  store i32 %53, ptr %10, align 4, !tbaa !11
  call void @strbuf_release(ptr noundef %8)
  call void @strbuf_release(ptr noundef %9)
  %54 = load i32, ptr %10, align 4, !tbaa !11
  store i32 %54, ptr %3, align 4
  store i32 1, ptr %11, align 4
  call void @llvm.lifetime.end.p0(i64 4, ptr %10) #12
  br label %56

55:                                               ; preds = %30, %19
  call void @strbuf_release(ptr noundef %8)
  call void @strbuf_release(ptr noundef %9)
  store i32 0, ptr %11, align 4
  br label %56

56:                                               ; preds = %55, %51
  call void @llvm.lifetime.end.p0(i64 24, ptr %9) #12
  call void @llvm.lifetime.end.p0(i64 24, ptr %8) #12
  %57 = load i32, ptr %11, align 4
  switch i32 %57, label %65 [
    i32 0, label %58
  ]

58:                                               ; preds = %56
  br label %59

59:                                               ; preds = %58, %2
  %60 = load i32, ptr %4, align 4, !tbaa !11
  %61 = load ptr, ptr %5, align 8, !tbaa !13
  %62 = getelementptr inbounds [2 x ptr], ptr %7, i64 0, i64 0
  %63 = getelementptr inbounds [1 x %struct.option], ptr %6, i64 0, i64 0
  call void @setup_enlistment_directory(i32 noundef %60, ptr noundef %61, ptr noundef %62, ptr noundef %63, ptr noundef null)
  %64 = call i32 @unregister_dir()
  store i32 %64, ptr %3, align 4
  store i32 1, ptr %11, align 4
  br label %65

65:                                               ; preds = %59, %56
  call void @llvm.lifetime.end.p0(i64 16, ptr %7) #12
  call void @llvm.lifetime.end.p0(i64 88, ptr %6) #12
  %66 = load i32, ptr %3, align 4
  ret i32 %66
}