; Function Attrs: nounwind uwtable
define internal range(i32 -1, 2) i32 @cmd_unregister(i32 noundef %0, ptr noundef %1) #2 {
  %3 = alloca [1 x %struct.option], align 16
  %4 = alloca [2 x ptr], align 16
  %5 = alloca %struct.strbuf, align 8
  %6 = alloca %struct.strbuf, align 8
  call void @llvm.lifetime.start.p0(i64 88, ptr nonnull %3) #18
  call void @llvm.memset.p0.i64(ptr noundef nonnull align 16 dereferenceable(88) %3, i8 0, i64 88, i1 false)
  call void @llvm.lifetime.start.p0(i64 16, ptr nonnull %4) #18
  call void @llvm.memcpy.p0.p0.i64(ptr noundef nonnull align 16 dereferenceable(16) %4, ptr noundef nonnull align 16 dereferenceable(16) @__const.cmd_unregister.usage, i64 16, i1 false)
  %7 = call i32 @parse_options(i32 noundef %0, ptr noundef %1, ptr noundef null, ptr noundef nonnull %3, ptr noundef nonnull %4, i32 noundef 0) #18
  %8 = icmp eq i32 %7, 1
  br i1 %8, label %9, label %.split

9:                                                ; preds = %2
  call void @llvm.lifetime.start.p0(i64 24, ptr nonnull %5) #18
  call void @llvm.memcpy.p0.p0.i64(ptr noundef nonnull align 8 dereferenceable(24) %5, ptr noundef nonnull align 8 dereferenceable(24) @__const.cmd_diagnose.diagnostics_root, i64 24, i1 false)
  call void @llvm.lifetime.start.p0(i64 24, ptr nonnull %6) #18
  call void @llvm.memcpy.p0.p0.i64(ptr noundef nonnull align 8 dereferenceable(24) %6, ptr noundef nonnull align 8 dereferenceable(24) @__const.cmd_diagnose.diagnostics_root, i64 24, i1 false)
  %10 = load ptr, ptr %1, align 8, !tbaa !4
  call void (ptr, ptr, ...) @strbuf_addf(ptr noundef nonnull %5, ptr noundef nonnull @.str.147, ptr noundef %10) #18
  %11 = load ptr, ptr %1, align 8, !tbaa !4
  call void (ptr, ptr, ...) @strbuf_addf(ptr noundef nonnull %6, ptr noundef nonnull @.str.148, ptr noundef %11) #18
  %12 = getelementptr inbounds nuw i8, ptr %5, i64 16
  %13 = load ptr, ptr %12, align 8, !tbaa !17
  %14 = call i32 @is_directory(ptr noundef %13) #18
  %.not = icmp eq i32 %14, 0
  br i1 %.not, label %15, label %.split12

15:                                               ; preds = %9
  %16 = getelementptr inbounds nuw i8, ptr %6, i64 16
  %17 = load ptr, ptr %16, align 8, !tbaa !17
  %18 = call i32 @is_directory(ptr noundef %17) #18
  %.not15 = icmp eq i32 %18, 0
  br i1 %.not15, label %19, label %.split12

19:                                               ; preds = %15
  %20 = load ptr, ptr %12, align 8, !tbaa !17
  %21 = getelementptr inbounds nuw i8, ptr %5, i64 8
  %22 = load i64, ptr %21, align 8, !tbaa !35
  %23 = icmp ult i64 %22, 5
  br i1 %23, label %strbuf_strip_suffix.exit, label %24

24:                                               ; preds = %19
  %25 = add i64 %22, -5
  %26 = getelementptr inbounds nuw i8, ptr %20, i64 %25
  %bcmp.i.i = call i32 @bcmp(ptr noundef nonnull readonly dereferenceable(5) %26, ptr noundef nonnull readonly dereferenceable(5) @.str.149, i64 5)
  %.not.i.i = icmp eq i32 %bcmp.i.i, 0
  br i1 %.not.i.i, label %27, label %strbuf_strip_suffix.exit

27:                                               ; preds = %24
  store i64 %25, ptr %21, align 8, !tbaa !35
  %28 = load i64, ptr %5, align 8, !tbaa !33
  %spec.select.i.i = call i64 @llvm.usub.sat.i64(i64 %28, i64 1)
  %29 = icmp ugt i64 %25, %spec.select.i.i
  br i1 %29, label %30, label %31

30:                                               ; preds = %27
  call void (ptr, i32, ptr, ...) @BUG_fl(ptr noundef nonnull @.str.69, i32 noundef 167, ptr noundef nonnull @.str.70) #17
  unreachable

31:                                               ; preds = %27
  %.not9.i.i = icmp eq ptr %20, @strbuf_slopbuf
  br i1 %.not9.i.i, label %strbuf_strip_suffix.exit, label %32

32:                                               ; preds = %31
  store i8 0, ptr %26, align 1, !tbaa !9
  %.pre = load ptr, ptr %12, align 8, !tbaa !17
  br label %strbuf_strip_suffix.exit

strbuf_strip_suffix.exit:                         ; preds = %19, %24, %31, %32
  %33 = phi ptr [ %20, %19 ], [ %20, %24 ], [ @strbuf_slopbuf, %31 ], [ %.pre, %32 ]
  %34 = call ptr @strbuf_realpath_forgiving(ptr noundef nonnull %5, ptr noundef %33, i32 noundef 1) #18
  %35 = load ptr, ptr %12, align 8, !tbaa !17
  %36 = call i32 (ptr, ...) @run_git(ptr noundef nonnull @.str.127, ptr noundef nonnull @.str.128, ptr noundef nonnull @.str.133, ptr noundef nonnull @.str.130, ptr noundef nonnull @.str.131, ptr noundef %35, ptr noundef null)
  %37 = load ptr, ptr %12, align 8, !tbaa !17
  %38 = call i32 (ptr, ...) @run_git(ptr noundef nonnull @.str.127, ptr noundef nonnull @.str.128, ptr noundef nonnull @.str.133, ptr noundef nonnull @.str.130, ptr noundef nonnull @.str.150, ptr noundef %37, ptr noundef null)
  %.inv.i = icmp slt i32 %38, 0
  %39 = icmp slt i32 %36, 0
  %40 = select i1 %.inv.i, i1 true, i1 %39
  %41 = load ptr, ptr %16, align 8, !tbaa !17
  %42 = getelementptr inbounds nuw i8, ptr %6, i64 8
  %43 = load i64, ptr %42, align 8, !tbaa !35
  %44 = icmp ult i64 %43, 5
  br i1 %44, label %54, label %45

45:                                               ; preds = %strbuf_strip_suffix.exit
  %46 = add i64 %43, -5
  %47 = getelementptr inbounds nuw i8, ptr %41, i64 %46
  %bcmp.i.i16 = call i32 @bcmp(ptr noundef nonnull readonly dereferenceable(5) %47, ptr noundef nonnull readonly dereferenceable(5) @.str.149, i64 5)
  %.not.i.i17 = icmp eq i32 %bcmp.i.i16, 0
  br i1 %.not.i.i17, label %48, label %54

48:                                               ; preds = %45
  store i64 %46, ptr %42, align 8, !tbaa !35
  %49 = load i64, ptr %6, align 8, !tbaa !33
  %spec.select.i.i19 = call i64 @llvm.usub.sat.i64(i64 %49, i64 1)
  %50 = icmp ugt i64 %46, %spec.select.i.i19
  br i1 %50, label %51, label %52

51:                                               ; preds = %48
  call void (ptr, i32, ptr, ...) @BUG_fl(ptr noundef nonnull @.str.69, i32 noundef 167, ptr noundef nonnull @.str.70) #17
  unreachable

52:                                               ; preds = %48
  %.not9.i.i20 = icmp eq ptr %41, @strbuf_slopbuf
  br i1 %.not9.i.i20, label %54, label %53

53:                                               ; preds = %52
  store i8 0, ptr %47, align 1, !tbaa !9
  %.pre27 = load ptr, ptr %16, align 8, !tbaa !17
  br label %54

54:                                               ; preds = %53, %52, %45, %strbuf_strip_suffix.exit
  %55 = phi ptr [ %.pre27, %53 ], [ @strbuf_slopbuf, %52 ], [ %41, %45 ], [ %41, %strbuf_strip_suffix.exit ]
  %56 = call ptr @strbuf_realpath_forgiving(ptr noundef nonnull %6, ptr noundef %55, i32 noundef 1) #18
  %57 = load ptr, ptr %16, align 8, !tbaa !17
  %58 = call i32 (ptr, ...) @run_git(ptr noundef nonnull @.str.127, ptr noundef nonnull @.str.128, ptr noundef nonnull @.str.133, ptr noundef nonnull @.str.130, ptr noundef nonnull @.str.131, ptr noundef %57, ptr noundef null)
  %59 = load ptr, ptr %16, align 8, !tbaa !17
  %60 = call i32 (ptr, ...) @run_git(ptr noundef nonnull @.str.127, ptr noundef nonnull @.str.128, ptr noundef nonnull @.str.133, ptr noundef nonnull @.str.130, ptr noundef nonnull @.str.150, ptr noundef %59, ptr noundef null)
  %.inv.i23 = icmp slt i32 %60, 0
  %61 = icmp slt i32 %58, 0
  %62 = select i1 %.inv.i23, i1 true, i1 %61
  %63 = select i1 %62, i1 %40, i1 false
  %64 = zext i1 %63 to i32
  call void @strbuf_release(ptr noundef nonnull %5) #18
  call void @strbuf_release(ptr noundef nonnull %6) #18
  call void @llvm.lifetime.end.p0(i64 24, ptr nonnull %6) #18
  call void @llvm.lifetime.end.p0(i64 24, ptr nonnull %5) #18
  br label %66

.split12:                                         ; preds = %9, %15
  call void @strbuf_release(ptr noundef nonnull %5) #18
  call void @strbuf_release(ptr noundef nonnull %6) #18
  call void @llvm.lifetime.end.p0(i64 24, ptr nonnull %6) #18
  call void @llvm.lifetime.end.p0(i64 24, ptr nonnull %5) #18
  br label %.split

.split:                                           ; preds = %2, %.split12
  %.sink = phi i32 [ 1, %.split12 ], [ %7, %2 ]
  call fastcc void @setup_enlistment_directory(i32 noundef %.sink, ptr noundef %1, ptr noundef %4, ptr noundef %3, ptr noundef null)
  %65 = call fastcc i32 @unregister_dir()
  br label %66

66:                                               ; preds = %54, %.split
  %.1 = phi i32 [ %65, %.split ], [ %64, %54 ]
  call void @llvm.lifetime.end.p0(i64 16, ptr nonnull %4) #18
  call void @llvm.lifetime.end.p0(i64 88, ptr nonnull %3) #18
  ret i32 %.1
}